target datalayout = "e-m:e-p270:32:32-p271:32:32-p272:64:64-i64:64-i128:128-f80:128-n8:16:32:64-S128"
target triple = "x86_64-pc-linux-gnu"

%"class.cv::reg::MapShift" = type { %"class.cv::reg::Map", %"class.cv::Vec" }
%"class.cv::reg::Map" = type { ptr }
%"class.cv::Vec" = type { %"class.cv::Matx" }
%"class.cv::Matx" = type { [2 x double] }

; Function Attrs: inlinehint mustprogress nounwind uwtable
define internal noundef double @_ZN2cvL13saturate_castIdEET_d(double noundef %0) #1 {
  %2 = alloca double, align 8
  store double %0, ptr %2, align 8, !tbaa !35
  %3 = load double, ptr %2, align 8, !tbaa !35
  ret double %3
}

; Function Attrs: inlinehint mustprogress nounwind uwtable
define linkonce_odr hidden noundef nonnull align 8 dereferenceable(8) ptr @_ZN2cv3VecIdLi2EEixEi(ptr noundef nonnull align 8 dereferenceable(16) %0, i32 noundef %1) #1 comdat align 2 {
  %3 = alloca ptr, align 8
  %4 = alloca i32, align 4
  store ptr %0, ptr %3, align 8, !tbaa !12
  store i32 %1, ptr %4, align 4, !tbaa !16
  %5 = load ptr, ptr %3, align 8
  %6 = getelementptr inbounds nuw %"class.cv::Matx", ptr %5, i32 0, i32 0
  %7 = load i32, ptr %4, align 4, !tbaa !16
  %8 = sext i32 %7 to i64
  %9 = getelementptr inbounds [2 x double], ptr %6, i64 0, i64 %8
  ret ptr %9
}

; Function Attrs: inlinehint mustprogress uwtable
define internal noundef nonnull align 8 dereferenceable(16) ptr @_ZN2cvmLIdLi2EEERNS_3VecIT_XT0_EEES4_d(ptr noundef nonnull align 8 dereferenceable(16) %0, double noundef %1) #2 {
  %3 = alloca ptr, align 8
  %4 = alloca double, align 8
  %5 = alloca i32, align 4
  store ptr %0, ptr %3, align 8, !tbaa !12
  store double %1, ptr %4, align 8, !tbaa !35
  call void @llvm.lifetime.start.p0(i64 4, ptr %5) #12
  store i32 0, ptr %5, align 4, !tbaa !16
  br label %6

6:                                                ; preds = %21, %2
  %7 = load i32, ptr %5, align 4, !tbaa !16
  %8 = icmp slt i32 %7, 2
  br i1 %8, label %10, label %9

9:                                                ; preds = %6
  call void @llvm.lifetime.end.p0(i64 4, ptr %5) #12
  br label %24

10:                                               ; preds = %6
  %11 = load ptr, ptr %3, align 8, !tbaa !12
  %12 = load i32, ptr %5, align 4, !tbaa !16
  %13 = call noundef nonnull align 8 dereferenceable(8) ptr @_ZN2cv3VecIdLi2EEixEi(ptr noundef nonnull align 8 dereferenceable(16) %11, i32 noundef %12)
  %14 = load double, ptr %13, align 8, !tbaa !35
  %15 = load double, ptr %4, align 8, !tbaa !35
  %16 = fmul double %14, %15
  %17 = call noundef double @_ZN2cvL13saturate_castIdEET_d(double noundef %16)
  %18 = load ptr, ptr %3, align 8, !tbaa !12
  %19 = load i32, ptr %5, align 4, !tbaa !16
  %20 = call noundef nonnull align 8 dereferenceable(8) ptr @_ZN2cv3VecIdLi2EEixEi(ptr noundef nonnull align 8 dereferenceable(16) %18, i32 noundef %19)
  store double %17, ptr %20, align 8, !tbaa !35
  br label %21

21:                                               ; preds = %10
  %22 = load i32, ptr %5, align 4, !tbaa !16
  %23 = add nsw i32 %22, 1
  store i32 %23, ptr %5, align 4, !tbaa !16
  br label %6, !llvm.loop !57

24:                                               ; preds = %9
  %25 = load ptr, ptr %3, align 8, !tbaa !12
  ret ptr %25
}

; Function Attrs: mustprogress uwtable
define void @_ZN2cv3reg8MapShift5scaleEd(ptr noundef nonnull align 8 dereferenceable(24) %0, double noundef %1) unnamed_addr #0 align 2 {
  %3 = alloca ptr, align 8
  %4 = alloca double, align 8
  store ptr %0, ptr %3, align 8, !tbaa !3
  store double %1, ptr %4, align 8, !tbaa !35
  %5 = load ptr, ptr %3, align 8
  %6 = load double, ptr %4, align 8, !tbaa !35
  %7 = getelementptr inbounds nuw %"class.cv::reg::MapShift", ptr %5, i32 0, i32 1
  %8 = call noundef nonnull align 8 dereferenceable(16) ptr @_ZN2cvmLIdLi2EEERNS_3VecIT_XT0_EEES4_d(ptr noundef nonnull align 8 dereferenceable(16) %7, double noundef %6)
  ret void
}